(dp0
Vking
p1
V5hbJHPATQ1YgO3BTG3VStm
p2
sVtamutwitif
p3
V0FhK5aFqKrslvDwHptcWsD
p4
sVpark
p5
V4Nl9SLB4mOPPLDk53drrRd
p6
sVbad
p7
V4deOVp1XIifKZJyq2dTH22
p8
sVthefeels
p9
V0sFWHvnRBt5XNFKBiWupwv
p10
sVdonewithfinals
p11
V6ztoXGyLau81X6OwAn1HXm
p12
sVlegit
p13
V0SrkhDqMk00Yuj5xKcUcpx
p14
s.